#include <math.h>
#include <stdio.h>
#include <stdlib.h>
#include <string.h>


int main(){
	int i,yiyang=0,zongliang=0,x;
	char lian1[501],lian2[501];
	double biaozhun,jieguo;
	scanf("%lf",&biaozhun);
	scanf("%s%s",&lian1,&lian2);
	for(i=0;lian1[i]!='\0'&&lian2[i]!='\0';i++){
		if((lian1[i]=='A'||lian1[i]=='C'||lian1[i]=='T'||lian1[i]=='G')&&(lian2[i]=='A'||lian2[i]=='C'||lian2[i]=='T'||lian2[i]=='G')){
			if(lian1[i]==lian2[i]){
				yiyang++;
			}
			zongliang++;
		}else{
			printf("error");
			x=99;
			break;
		}
	}
	if(lian1[zongliang]!='\0'||lian2[zongliang]!='\0'){
		if(x!=99){
		printf("error");
	}
		zongliang=0;
	}
	if(zongliang!=0){
	jieguo=1.0*yiyang/zongliang;
	if(jieguo>biaozhun){
		printf("yes");
	}else{
		printf("no");
	}
	}
	return 0;
}