; ModuleID = '5/954.c'
source_filename = "5/954.c"
target datalayout = "e-m:e-p270:32:32-p271:32:32-p272:64:64-i64:64-f80:128-n8:16:32:64-S128"
target triple = "x86_64-pc-linux-gnu"

@.str = private unnamed_addr constant [4 x i8] c"%lf\00", align 1
@.str.1 = private unnamed_addr constant [5 x i8] c"%s%s\00", align 1
@.str.2 = private unnamed_addr constant [6 x i8] c"error\00", align 1
@.str.3 = private unnamed_addr constant [4 x i8] c"yes\00", align 1
@.str.4 = private unnamed_addr constant [3 x i8] c"no\00", align 1

; Function Attrs: noinline nounwind uwtable
define dso_local i32 @main() #0 {
  %1 = alloca i32, align 4
  %2 = alloca i32, align 4
  %3 = alloca i32, align 4
  %4 = alloca i32, align 4
  %5 = alloca i32, align 4
  %6 = alloca [501 x i8], align 16
  %7 = alloca [501 x i8], align 16
  %8 = alloca double, align 8
  %9 = alloca double, align 8
  store i32 0, i32* %1, align 4
  store i32 0, i32* %3, align 4
  store i32 0, i32* %4, align 4
  %10 = call i32 (i8*, ...) @__isoc99_scanf(i8* getelementptr inbounds ([4 x i8], [4 x i8]* @.str, i64 0, i64 0), double* %8)
  %11 = call i32 (i8*, ...) @__isoc99_scanf(i8* getelementptr inbounds ([5 x i8], [5 x i8]* @.str.1, i64 0, i64 0), [501 x i8]* %6, [501 x i8]* %7)
  store i32 0, i32* %2, align 4
  br label %12

12:                                               ; preds = %105, %0
  %13 = load i32, i32* %2, align 4
  %14 = sext i32 %13 to i64
  %15 = getelementptr inbounds [501 x i8], [501 x i8]* %6, i64 0, i64 %14
  %16 = load i8, i8* %15, align 1
  %17 = sext i8 %16 to i32
  %18 = icmp ne i32 %17, 0
  br i1 %18, label %19, label %26

19:                                               ; preds = %12
  %20 = load i32, i32* %2, align 4
  %21 = sext i32 %20 to i64
  %22 = getelementptr inbounds [501 x i8], [501 x i8]* %7, i64 0, i64 %21
  %23 = load i8, i8* %22, align 1
  %24 = sext i8 %23 to i32
  %25 = icmp ne i32 %24, 0
  br label %26

26:                                               ; preds = %19, %12
  %27 = phi i1 [ false, %12 ], [ %25, %19 ]
  br i1 %27, label %28, label %108

28:                                               ; preds = %26
  %29 = load i32, i32* %2, align 4
  %30 = sext i32 %29 to i64
  %31 = getelementptr inbounds [501 x i8], [501 x i8]* %6, i64 0, i64 %30
  %32 = load i8, i8* %31, align 1
  %33 = sext i8 %32 to i32
  %34 = icmp eq i32 %33, 65
  br i1 %34, label %56, label %35

35:                                               ; preds = %28
  %36 = load i32, i32* %2, align 4
  %37 = sext i32 %36 to i64
  %38 = getelementptr inbounds [501 x i8], [501 x i8]* %6, i64 0, i64 %37
  %39 = load i8, i8* %38, align 1
  %40 = sext i8 %39 to i32
  %41 = icmp eq i32 %40, 67
  br i1 %41, label %56, label %42

42:                                               ; preds = %35
  %43 = load i32, i32* %2, align 4
  %44 = sext i32 %43 to i64
  %45 = getelementptr inbounds [501 x i8], [501 x i8]* %6, i64 0, i64 %44
  %46 = load i8, i8* %45, align 1
  %47 = sext i8 %46 to i32
  %48 = icmp eq i32 %47, 84
  br i1 %48, label %56, label %49

49:                                               ; preds = %42
  %50 = load i32, i32* %2, align 4
  %51 = sext i32 %50 to i64
  %52 = getelementptr inbounds [501 x i8], [501 x i8]* %6, i64 0, i64 %51
  %53 = load i8, i8* %52, align 1
  %54 = sext i8 %53 to i32
  %55 = icmp eq i32 %54, 71
  br i1 %55, label %56, label %102

56:                                               ; preds = %49, %42, %35, %28
  %57 = load i32, i32* %2, align 4
  %58 = sext i32 %57 to i64
  %59 = getelementptr inbounds [501 x i8], [501 x i8]* %7, i64 0, i64 %58
  %60 = load i8, i8* %59, align 1
  %61 = sext i8 %60 to i32
  %62 = icmp eq i32 %61, 65
  br i1 %62, label %84, label %63

63:                                               ; preds = %56
  %64 = load i32, i32* %2, align 4
  %65 = sext i32 %64 to i64
  %66 = getelementptr inbounds [501 x i8], [501 x i8]* %7, i64 0, i64 %65
  %67 = load i8, i8* %66, align 1
  %68 = sext i8 %67 to i32
  %69 = icmp eq i32 %68, 67
  br i1 %69, label %84, label %70

70:                                               ; preds = %63
  %71 = load i32, i32* %2, align 4
  %72 = sext i32 %71 to i64
  %73 = getelementptr inbounds [501 x i8], [501 x i8]* %7, i64 0, i64 %72
  %74 = load i8, i8* %73, align 1
  %75 = sext i8 %74 to i32
  %76 = icmp eq i32 %75, 84
  br i1 %76, label %84, label %77

77:                                               ; preds = %70
  %78 = load i32, i32* %2, align 4
  %79 = sext i32 %78 to i64
  %80 = getelementptr inbounds [501 x i8], [501 x i8]* %7, i64 0, i64 %79
  %81 = load i8, i8* %80, align 1
  %82 = sext i8 %81 to i32
  %83 = icmp eq i32 %82, 71
  br i1 %83, label %84, label %102

84:                                               ; preds = %77, %70, %63, %56
  %85 = load i32, i32* %2, align 4
  %86 = sext i32 %85 to i64
  %87 = getelementptr inbounds [501 x i8], [501 x i8]* %6, i64 0, i64 %86
  %88 = load i8, i8* %87, align 1
  %89 = sext i8 %88 to i32
  %90 = load i32, i32* %2, align 4
  %91 = sext i32 %90 to i64
  %92 = getelementptr inbounds [501 x i8], [501 x i8]* %7, i64 0, i64 %91
  %93 = load i8, i8* %92, align 1
  %94 = sext i8 %93 to i32
  %95 = icmp eq i32 %89, %94
  br i1 %95, label %96, label %99

96:                                               ; preds = %84
  %97 = load i32, i32* %3, align 4
  %98 = add nsw i32 %97, 1
  store i32 %98, i32* %3, align 4
  br label %99

99:                                               ; preds = %96, %84
  %100 = load i32, i32* %4, align 4
  %101 = add nsw i32 %100, 1
  store i32 %101, i32* %4, align 4
  br label %104

102:                                              ; preds = %77, %49
  %103 = call i32 (i8*, ...) @printf(i8* getelementptr inbounds ([6 x i8], [6 x i8]* @.str.2, i64 0, i64 0))
  store i32 99, i32* %5, align 4
  br label %108

104:                                              ; preds = %99
  br label %105

105:                                              ; preds = %104
  %106 = load i32, i32* %2, align 4
  %107 = add nsw i32 %106, 1
  store i32 %107, i32* %2, align 4
  br label %12

108:                                              ; preds = %102, %26
  %109 = load i32, i32* %4, align 4
  %110 = sext i32 %109 to i64
  %111 = getelementptr inbounds [501 x i8], [501 x i8]* %6, i64 0, i64 %110
  %112 = load i8, i8* %111, align 1
  %113 = sext i8 %112 to i32
  %114 = icmp ne i32 %113, 0
  br i1 %114, label %122, label %115

115:                                              ; preds = %108
  %116 = load i32, i32* %4, align 4
  %117 = sext i32 %116 to i64
  %118 = getelementptr inbounds [501 x i8], [501 x i8]* %7, i64 0, i64 %117
  %119 = load i8, i8* %118, align 1
  %120 = sext i8 %119 to i32
  %121 = icmp ne i32 %120, 0
  br i1 %121, label %122, label %128

122:                                              ; preds = %115, %108
  %123 = load i32, i32* %5, align 4
  %124 = icmp ne i32 %123, 99
  br i1 %124, label %125, label %127

125:                                              ; preds = %122
  %126 = call i32 (i8*, ...) @printf(i8* getelementptr inbounds ([6 x i8], [6 x i8]* @.str.2, i64 0, i64 0))
  br label %127

127:                                              ; preds = %125, %122
  store i32 0, i32* %4, align 4
  br label %128

128:                                              ; preds = %127, %115
  %129 = load i32, i32* %4, align 4
  %130 = icmp ne i32 %129, 0
  br i1 %130, label %131, label %146

131:                                              ; preds = %128
  %132 = load i32, i32* %3, align 4
  %133 = sitofp i32 %132 to double
  %134 = fmul double 1.000000e+00, %133
  %135 = load i32, i32* %4, align 4
  %136 = sitofp i32 %135 to double
  %137 = fdiv double %134, %136
  store double %137, double* %9, align 8
  %138 = load double, double* %9, align 8
  %139 = load double, double* %8, align 8
  %140 = fcmp ogt double %138, %139
  br i1 %140, label %141, label %143

141:                                              ; preds = %131
  %142 = call i32 (i8*, ...) @printf(i8* getelementptr inbounds ([4 x i8], [4 x i8]* @.str.3, i64 0, i64 0))
  br label %145

143:                                              ; preds = %131
  %144 = call i32 (i8*, ...) @printf(i8* getelementptr inbounds ([3 x i8], [3 x i8]* @.str.4, i64 0, i64 0))
  br label %145

145:                                              ; preds = %143, %141
  br label %146

146:                                              ; preds = %145, %128
  ret i32 0
}

declare dso_local i32 @__isoc99_scanf(i8*, ...) #1

declare dso_local i32 @printf(i8*, ...) #1


!llvm.module.flags = !{!0}
!llvm.ident = !{!1}

!0 = !{i32 1, !"wchar_size", i32 4}
!1 = !{!"clang version 10.0.0-4ubuntu1 "}
